target datalayout = "e-m:e-p270:32:32-p271:32:32-p272:64:64-i64:64-i128:128-f80:128-n8:16:32:64-S128"
target triple = "x86_64-pc-linux-gnu"

%struct.AVRational = type { i32, i32 }
%struct.AVProbeData = type { ptr, ptr, i32, ptr }
%struct.AVFormatContext = type { ptr, ptr, ptr, ptr, ptr, i32, i32, ptr, i32, ptr, i32, ptr, ptr, i64, i64, i64, i32, i32, i32, i64, i64, ptr, i32, i32, ptr, i32, i32, i32, i32, ptr, i64, i32, i32, %struct.AVIOInterruptCB, i32, i32, i32, i32, i64, i32, i32, i32, i32, i32, i32, i32, i32, i32, i32, i32, i32, i64, i32, i32, i32, i32, i32, ptr, ptr, ptr, ptr, i32, ptr, ptr, ptr, ptr, i32, ptr, ptr, i64, ptr, ptr, ptr, i64 }
%struct.AVIOInterruptCB = type { ptr, ptr }
%struct.AVStream = type { ptr, i32, i32, ptr, ptr, %struct.AVRational, i64, i64, i64, i32, i32, %struct.AVRational, ptr, %struct.AVRational, %struct.AVPacket, i32, %struct.AVRational, i32 }
%struct.AVPacket = type { ptr, i64, i64, ptr, i32, i32, i32, ptr, i32, i64, i64, ptr, ptr, %struct.AVRational }
%struct.AVCodecParameters = type { i32, i32, i32, ptr, i32, ptr, i32, i32, i64, i32, i32, i32, i32, i32, i32, %struct.AVRational, %struct.AVRational, i32, i32, i32, i32, i32, i32, i32, %struct.AVChannelLayout, i32, i32, i32, i32, i32, i32 }
%struct.AVChannelLayout = type { i32, i32, %union.anon, ptr }
%union.anon = type { i64 }
%struct.FFStream = type { %struct.AVStream, ptr, i32, ptr, i32, ptr, i32, %struct.anon, i32, i32, %struct.FFFrac, ptr, ptr, i32, i32, i64, i64, i32, i32, i32, i64, i64, i64, i32, i64, i64, i64, i32, i32, [17 x i64], [17 x i8], [17 x i64], i64, i8, i8, %struct.AVRational, %struct.AVProbeData, ptr, i64, i32, i32, i32, ptr, i32, i32, i64, i64, ptr, %struct.AVRational }
%struct.anon = type { ptr, i32 }
%struct.FFFrac = type { i64, i64, i64 }

; Function Attrs: alwaysinline nounwind uwtable
define internal ptr @ffstream(ptr noundef %0) #7 {
  %2 = alloca ptr, align 8
  store ptr %0, ptr %2, align 8, !tbaa !42
  %3 = load ptr, ptr %2, align 8, !tbaa !42
  ret ptr %3
}

; Function Attrs: nounwind uwtable
define internal i32 @get_sindex(ptr noundef %0, i32 noundef %1, i32 noundef %2) #0 {
  %4 = alloca i32, align 4
  %5 = alloca ptr, align 8
  %6 = alloca i32, align 4
  %7 = alloca i32, align 4
  %8 = alloca i32, align 4
  %9 = alloca ptr, align 8
  %10 = alloca ptr, align 8
  %11 = alloca i32, align 4
  %12 = alloca %struct.AVChannelLayout, align 8
  %13 = alloca %struct.AVChannelLayout, align 8
  %14 = alloca %struct.AVChannelLayout, align 8
  store ptr %0, ptr %5, align 8, !tbaa !13
  store i32 %1, ptr %6, align 4, !tbaa !34
  store i32 %2, ptr %7, align 4, !tbaa !34
  call void @llvm.lifetime.start.p0(i64 4, ptr %8) #10
  call void @llvm.lifetime.start.p0(i64 8, ptr %9) #10
  store ptr null, ptr %9, align 8, !tbaa !42
  call void @llvm.lifetime.start.p0(i64 8, ptr %10) #10
  %15 = load ptr, ptr %5, align 8, !tbaa !13
  %16 = load i32, ptr %6, align 4, !tbaa !34
  %17 = call i32 @ff_find_stream_index(ptr noundef %15, i32 noundef %16)
  store i32 %17, ptr %8, align 4, !tbaa !34
  %18 = load i32, ptr %8, align 4, !tbaa !34
  %19 = icmp sge i32 %18, 0
  br i1 %19, label %20, label %22

20:                                               ; preds = %3
  %21 = load i32, ptr %8, align 4, !tbaa !34
  store i32 %21, ptr %4, align 4
  store i32 1, ptr %11, align 4
  br label %205

22:                                               ; preds = %3
  %23 = load ptr, ptr %5, align 8, !tbaa !13
  %24 = call ptr @avformat_new_stream(ptr noundef %23, ptr noundef null)
  store ptr %24, ptr %9, align 8, !tbaa !42
  %25 = load ptr, ptr %9, align 8, !tbaa !42
  %26 = icmp ne ptr %25, null
  br i1 %26, label %28, label %27

27:                                               ; preds = %22
  store i32 -12, ptr %4, align 4
  store i32 1, ptr %11, align 4
  br label %205

28:                                               ; preds = %22
  %29 = load ptr, ptr %9, align 8, !tbaa !42
  %30 = call ptr @ffstream(ptr noundef %29)
  store ptr %30, ptr %10, align 8, !tbaa !73
  %31 = load i32, ptr %6, align 4, !tbaa !34
  %32 = load ptr, ptr %9, align 8, !tbaa !42
  %33 = getelementptr inbounds nuw %struct.AVStream, ptr %32, i32 0, i32 2
  store i32 %31, ptr %33, align 4, !tbaa !99
  %34 = load i32, ptr %7, align 4, !tbaa !34
  switch i32 %34, label %191 [
    i32 3, label %35
    i32 4, label %35
    i32 13, label %44
    i32 14, label %44
    i32 15, label %44
    i32 16, label %44
    i32 25, label %44
    i32 11, label %53
    i32 12, label %53
    i32 20, label %53
    i32 22, label %64
    i32 23, label %64
    i32 9, label %75
    i32 10, label %108
    i32 17, label %141
    i32 26, label %162
    i32 29, label %162
    i32 7, label %173
    i32 8, label %173
    i32 24, label %173
    i32 30, label %182
  ]

35:                                               ; preds = %28, %28
  %36 = load ptr, ptr %9, align 8, !tbaa !42
  %37 = getelementptr inbounds nuw %struct.AVStream, ptr %36, i32 0, i32 3
  %38 = load ptr, ptr %37, align 8, !tbaa !65
  %39 = getelementptr inbounds nuw %struct.AVCodecParameters, ptr %38, i32 0, i32 0
  store i32 0, ptr %39, align 8, !tbaa !100
  %40 = load ptr, ptr %9, align 8, !tbaa !42
  %41 = getelementptr inbounds nuw %struct.AVStream, ptr %40, i32 0, i32 3
  %42 = load ptr, ptr %41, align 8, !tbaa !65
  %43 = getelementptr inbounds nuw %struct.AVCodecParameters, ptr %42, i32 0, i32 1
  store i32 7, ptr %43, align 4, !tbaa !66
  br label %200

44:                                               ; preds = %28, %28, %28, %28, %28
  %45 = load ptr, ptr %9, align 8, !tbaa !42
  %46 = getelementptr inbounds nuw %struct.AVStream, ptr %45, i32 0, i32 3
  %47 = load ptr, ptr %46, align 8, !tbaa !65
  %48 = getelementptr inbounds nuw %struct.AVCodecParameters, ptr %47, i32 0, i32 0
  store i32 0, ptr %48, align 8, !tbaa !100
  %49 = load ptr, ptr %9, align 8, !tbaa !42
  %50 = getelementptr inbounds nuw %struct.AVStream, ptr %49, i32 0, i32 3
  %51 = load ptr, ptr %50, align 8, !tbaa !65
  %52 = getelementptr inbounds nuw %struct.AVCodecParameters, ptr %51, i32 0, i32 1
  store i32 24, ptr %52, align 4, !tbaa !66
  br label %200

53:                                               ; preds = %28, %28, %28
  %54 = load ptr, ptr %9, align 8, !tbaa !42
  %55 = getelementptr inbounds nuw %struct.AVStream, ptr %54, i32 0, i32 3
  %56 = load ptr, ptr %55, align 8, !tbaa !65
  %57 = getelementptr inbounds nuw %struct.AVCodecParameters, ptr %56, i32 0, i32 0
  store i32 0, ptr %57, align 8, !tbaa !100
  %58 = load ptr, ptr %9, align 8, !tbaa !42
  %59 = getelementptr inbounds nuw %struct.AVStream, ptr %58, i32 0, i32 3
  %60 = load ptr, ptr %59, align 8, !tbaa !65
  %61 = getelementptr inbounds nuw %struct.AVCodecParameters, ptr %60, i32 0, i32 1
  store i32 2, ptr %61, align 4, !tbaa !66
  %62 = load ptr, ptr %10, align 8, !tbaa !73
  %63 = getelementptr inbounds nuw %struct.FFStream, ptr %62, i32 0, i32 41
  store i32 2, ptr %63, align 8, !tbaa !101
  br label %200

64:                                               ; preds = %28, %28
  %65 = load ptr, ptr %9, align 8, !tbaa !42
  %66 = getelementptr inbounds nuw %struct.AVStream, ptr %65, i32 0, i32 3
  %67 = load ptr, ptr %66, align 8, !tbaa !65
  %68 = getelementptr inbounds nuw %struct.AVCodecParameters, ptr %67, i32 0, i32 0
  store i32 0, ptr %68, align 8, !tbaa !100
  %69 = load ptr, ptr %9, align 8, !tbaa !42
  %70 = getelementptr inbounds nuw %struct.AVStream, ptr %69, i32 0, i32 3
  %71 = load ptr, ptr %70, align 8, !tbaa !65
  %72 = getelementptr inbounds nuw %struct.AVCodecParameters, ptr %71, i32 0, i32 1
  store i32 1, ptr %72, align 4, !tbaa !66
  %73 = load ptr, ptr %10, align 8, !tbaa !73
  %74 = getelementptr inbounds nuw %struct.FFStream, ptr %73, i32 0, i32 41
  store i32 2, ptr %74, align 8, !tbaa !101
  br label %200

75:                                               ; preds = %28
  %76 = load ptr, ptr %9, align 8, !tbaa !42
  %77 = getelementptr inbounds nuw %struct.AVStream, ptr %76, i32 0, i32 3
  %78 = load ptr, ptr %77, align 8, !tbaa !65
  %79 = getelementptr inbounds nuw %struct.AVCodecParameters, ptr %78, i32 0, i32 0
  store i32 1, ptr %79, align 8, !tbaa !100
  %80 = load ptr, ptr %9, align 8, !tbaa !42
  %81 = getelementptr inbounds nuw %struct.AVStream, ptr %80, i32 0, i32 3
  %82 = load ptr, ptr %81, align 8, !tbaa !65
  %83 = getelementptr inbounds nuw %struct.AVCodecParameters, ptr %82, i32 0, i32 1
  store i32 65548, ptr %83, align 4, !tbaa !66
  %84 = load ptr, ptr %9, align 8, !tbaa !42
  %85 = getelementptr inbounds nuw %struct.AVStream, ptr %84, i32 0, i32 3
  %86 = load ptr, ptr %85, align 8, !tbaa !65
  %87 = getelementptr inbounds nuw %struct.AVCodecParameters, ptr %86, i32 0, i32 24
  %88 = getelementptr inbounds nuw %struct.AVChannelLayout, ptr %12, i32 0, i32 0
  store i32 1, ptr %88, align 8, !tbaa !102
  %89 = getelementptr inbounds nuw %struct.AVChannelLayout, ptr %12, i32 0, i32 1
  store i32 1, ptr %89, align 4, !tbaa !103
  %90 = getelementptr inbounds nuw %struct.AVChannelLayout, ptr %12, i32 0, i32 2
  store i64 4, ptr %90, align 8, !tbaa !104
  %91 = getelementptr inbounds nuw %struct.AVChannelLayout, ptr %12, i32 0, i32 3
  store ptr null, ptr %91, align 8, !tbaa !105
  call void @llvm.memcpy.p0.p0.i64(ptr align 8 %87, ptr align 8 %12, i64 24, i1 false), !tbaa.struct !106
  %92 = load ptr, ptr %9, align 8, !tbaa !42
  %93 = getelementptr inbounds nuw %struct.AVStream, ptr %92, i32 0, i32 3
  %94 = load ptr, ptr %93, align 8, !tbaa !65
  %95 = getelementptr inbounds nuw %struct.AVCodecParameters, ptr %94, i32 0, i32 25
  store i32 48000, ptr %95, align 8, !tbaa !107
  %96 = load ptr, ptr %9, align 8, !tbaa !42
  %97 = getelementptr inbounds nuw %struct.AVStream, ptr %96, i32 0, i32 3
  %98 = load ptr, ptr %97, align 8, !tbaa !65
  %99 = getelementptr inbounds nuw %struct.AVCodecParameters, ptr %98, i32 0, i32 8
  store i64 1152000, ptr %99, align 8, !tbaa !108
  %100 = load ptr, ptr %9, align 8, !tbaa !42
  %101 = getelementptr inbounds nuw %struct.AVStream, ptr %100, i32 0, i32 3
  %102 = load ptr, ptr %101, align 8, !tbaa !65
  %103 = getelementptr inbounds nuw %struct.AVCodecParameters, ptr %102, i32 0, i32 26
  store i32 3, ptr %103, align 4, !tbaa !109
  %104 = load ptr, ptr %9, align 8, !tbaa !42
  %105 = getelementptr inbounds nuw %struct.AVStream, ptr %104, i32 0, i32 3
  %106 = load ptr, ptr %105, align 8, !tbaa !65
  %107 = getelementptr inbounds nuw %struct.AVCodecParameters, ptr %106, i32 0, i32 9
  store i32 24, ptr %107, align 8, !tbaa !110
  br label %200

108:                                              ; preds = %28
  %109 = load ptr, ptr %9, align 8, !tbaa !42
  %110 = getelementptr inbounds nuw %struct.AVStream, ptr %109, i32 0, i32 3
  %111 = load ptr, ptr %110, align 8, !tbaa !65
  %112 = getelementptr inbounds nuw %struct.AVCodecParameters, ptr %111, i32 0, i32 0
  store i32 1, ptr %112, align 8, !tbaa !100
  %113 = load ptr, ptr %9, align 8, !tbaa !42
  %114 = getelementptr inbounds nuw %struct.AVStream, ptr %113, i32 0, i32 3
  %115 = load ptr, ptr %114, align 8, !tbaa !65
  %116 = getelementptr inbounds nuw %struct.AVCodecParameters, ptr %115, i32 0, i32 1
  store i32 65536, ptr %116, align 4, !tbaa !66
  %117 = load ptr, ptr %9, align 8, !tbaa !42
  %118 = getelementptr inbounds nuw %struct.AVStream, ptr %117, i32 0, i32 3
  %119 = load ptr, ptr %118, align 8, !tbaa !65
  %120 = getelementptr inbounds nuw %struct.AVCodecParameters, ptr %119, i32 0, i32 24
  %121 = getelementptr inbounds nuw %struct.AVChannelLayout, ptr %13, i32 0, i32 0
  store i32 1, ptr %121, align 8, !tbaa !102
  %122 = getelementptr inbounds nuw %struct.AVChannelLayout, ptr %13, i32 0, i32 1
  store i32 1, ptr %122, align 4, !tbaa !103
  %123 = getelementptr inbounds nuw %struct.AVChannelLayout, ptr %13, i32 0, i32 2
  store i64 4, ptr %123, align 8, !tbaa !104
  %124 = getelementptr inbounds nuw %struct.AVChannelLayout, ptr %13, i32 0, i32 3
  store ptr null, ptr %124, align 8, !tbaa !105
  call void @llvm.memcpy.p0.p0.i64(ptr align 8 %120, ptr align 8 %13, i64 24, i1 false), !tbaa.struct !106
  %125 = load ptr, ptr %9, align 8, !tbaa !42
  %126 = getelementptr inbounds nuw %struct.AVStream, ptr %125, i32 0, i32 3
  %127 = load ptr, ptr %126, align 8, !tbaa !65
  %128 = getelementptr inbounds nuw %struct.AVCodecParameters, ptr %127, i32 0, i32 25
  store i32 48000, ptr %128, align 8, !tbaa !107
  %129 = load ptr, ptr %9, align 8, !tbaa !42
  %130 = getelementptr inbounds nuw %struct.AVStream, ptr %129, i32 0, i32 3
  %131 = load ptr, ptr %130, align 8, !tbaa !65
  %132 = getelementptr inbounds nuw %struct.AVCodecParameters, ptr %131, i32 0, i32 8
  store i64 768000, ptr %132, align 8, !tbaa !108
  %133 = load ptr, ptr %9, align 8, !tbaa !42
  %134 = getelementptr inbounds nuw %struct.AVStream, ptr %133, i32 0, i32 3
  %135 = load ptr, ptr %134, align 8, !tbaa !65
  %136 = getelementptr inbounds nuw %struct.AVCodecParameters, ptr %135, i32 0, i32 26
  store i32 2, ptr %136, align 4, !tbaa !109
  %137 = load ptr, ptr %9, align 8, !tbaa !42
  %138 = getelementptr inbounds nuw %struct.AVStream, ptr %137, i32 0, i32 3
  %139 = load ptr, ptr %138, align 8, !tbaa !65
  %140 = getelementptr inbounds nuw %struct.AVCodecParameters, ptr %139, i32 0, i32 9
  store i32 16, ptr %140, align 8, !tbaa !110
  br label %200

141:                                              ; preds = %28
  %142 = load ptr, ptr %9, align 8, !tbaa !42
  %143 = getelementptr inbounds nuw %struct.AVStream, ptr %142, i32 0, i32 3
  %144 = load ptr, ptr %143, align 8, !tbaa !65
  %145 = getelementptr inbounds nuw %struct.AVCodecParameters, ptr %144, i32 0, i32 0
  store i32 1, ptr %145, align 8, !tbaa !100
  %146 = load ptr, ptr %9, align 8, !tbaa !42
  %147 = getelementptr inbounds nuw %struct.AVStream, ptr %146, i32 0, i32 3
  %148 = load ptr, ptr %147, align 8, !tbaa !65
  %149 = getelementptr inbounds nuw %struct.AVCodecParameters, ptr %148, i32 0, i32 1
  store i32 86019, ptr %149, align 4, !tbaa !66
  %150 = load ptr, ptr %9, align 8, !tbaa !42
  %151 = getelementptr inbounds nuw %struct.AVStream, ptr %150, i32 0, i32 3
  %152 = load ptr, ptr %151, align 8, !tbaa !65
  %153 = getelementptr inbounds nuw %struct.AVCodecParameters, ptr %152, i32 0, i32 24
  %154 = getelementptr inbounds nuw %struct.AVChannelLayout, ptr %14, i32 0, i32 0
  store i32 1, ptr %154, align 8, !tbaa !102
  %155 = getelementptr inbounds nuw %struct.AVChannelLayout, ptr %14, i32 0, i32 1
  store i32 2, ptr %155, align 4, !tbaa !103
  %156 = getelementptr inbounds nuw %struct.AVChannelLayout, ptr %14, i32 0, i32 2
  store i64 3, ptr %156, align 8, !tbaa !104
  %157 = getelementptr inbounds nuw %struct.AVChannelLayout, ptr %14, i32 0, i32 3
  store ptr null, ptr %157, align 8, !tbaa !105
  call void @llvm.memcpy.p0.p0.i64(ptr align 8 %153, ptr align 8 %14, i64 24, i1 false), !tbaa.struct !106
  %158 = load ptr, ptr %9, align 8, !tbaa !42
  %159 = getelementptr inbounds nuw %struct.AVStream, ptr %158, i32 0, i32 3
  %160 = load ptr, ptr %159, align 8, !tbaa !65
  %161 = getelementptr inbounds nuw %struct.AVCodecParameters, ptr %160, i32 0, i32 25
  store i32 48000, ptr %161, align 8, !tbaa !107
  br label %200

162:                                              ; preds = %28, %28
  %163 = load ptr, ptr %9, align 8, !tbaa !42
  %164 = getelementptr inbounds nuw %struct.AVStream, ptr %163, i32 0, i32 3
  %165 = load ptr, ptr %164, align 8, !tbaa !65
  %166 = getelementptr inbounds nuw %struct.AVCodecParameters, ptr %165, i32 0, i32 0
  store i32 0, ptr %166, align 8, !tbaa !100
  %167 = load ptr, ptr %9, align 8, !tbaa !42
  %168 = getelementptr inbounds nuw %struct.AVStream, ptr %167, i32 0, i32 3
  %169 = load ptr, ptr %168, align 8, !tbaa !65
  %170 = getelementptr inbounds nuw %struct.AVCodecParameters, ptr %169, i32 0, i32 1
  store i32 27, ptr %170, align 4, !tbaa !66
  %171 = load ptr, ptr %10, align 8, !tbaa !73
  %172 = getelementptr inbounds nuw %struct.FFStream, ptr %171, i32 0, i32 41
  store i32 2, ptr %172, align 8, !tbaa !101
  br label %200

173:                                              ; preds = %28, %28, %28
  %174 = load ptr, ptr %9, align 8, !tbaa !42
  %175 = getelementptr inbounds nuw %struct.AVStream, ptr %174, i32 0, i32 3
  %176 = load ptr, ptr %175, align 8, !tbaa !65
  %177 = getelementptr inbounds nuw %struct.AVCodecParameters, ptr %176, i32 0, i32 0
  store i32 2, ptr %177, align 8, !tbaa !100
  %178 = load ptr, ptr %9, align 8, !tbaa !42
  %179 = getelementptr inbounds nuw %struct.AVStream, ptr %178, i32 0, i32 3
  %180 = load ptr, ptr %179, align 8, !tbaa !65
  %181 = getelementptr inbounds nuw %struct.AVCodecParameters, ptr %180, i32 0, i32 1
  store i32 0, ptr %181, align 4, !tbaa !66
  br label %200

182:                                              ; preds = %28
  %183 = load ptr, ptr %9, align 8, !tbaa !42
  %184 = getelementptr inbounds nuw %struct.AVStream, ptr %183, i32 0, i32 3
  %185 = load ptr, ptr %184, align 8, !tbaa !65
  %186 = getelementptr inbounds nuw %struct.AVCodecParameters, ptr %185, i32 0, i32 0
  store i32 0, ptr %186, align 8, !tbaa !100
  %187 = load ptr, ptr %9, align 8, !tbaa !42
  %188 = getelementptr inbounds nuw %struct.AVStream, ptr %187, i32 0, i32 3
  %189 = load ptr, ptr %188, align 8, !tbaa !65
  %190 = getelementptr inbounds nuw %struct.AVCodecParameters, ptr %189, i32 0, i32 1
  store i32 99, ptr %190, align 4, !tbaa !66
  br label %200

191:                                              ; preds = %28
  %192 = load ptr, ptr %9, align 8, !tbaa !42
  %193 = getelementptr inbounds nuw %struct.AVStream, ptr %192, i32 0, i32 3
  %194 = load ptr, ptr %193, align 8, !tbaa !65
  %195 = getelementptr inbounds nuw %struct.AVCodecParameters, ptr %194, i32 0, i32 0
  store i32 -1, ptr %195, align 8, !tbaa !100
  %196 = load ptr, ptr %9, align 8, !tbaa !42
  %197 = getelementptr inbounds nuw %struct.AVStream, ptr %196, i32 0, i32 3
  %198 = load ptr, ptr %197, align 8, !tbaa !65
  %199 = getelementptr inbounds nuw %struct.AVCodecParameters, ptr %198, i32 0, i32 1
  store i32 0, ptr %199, align 4, !tbaa !66
  br label %200

200:                                              ; preds = %191, %182, %173, %162, %141, %108, %75, %64, %53, %44, %35
  %201 = load ptr, ptr %5, align 8, !tbaa !13
  %202 = getelementptr inbounds nuw %struct.AVFormatContext, ptr %201, i32 0, i32 6
  %203 = load i32, ptr %202, align 4, !tbaa !58
  %204 = sub i32 %203, 1
  store i32 %204, ptr %4, align 4
  store i32 1, ptr %11, align 4
  br label %205

205:                                              ; preds = %200, %27, %20
  call void @llvm.lifetime.end.p0(i64 8, ptr %10) #10
  call void @llvm.lifetime.end.p0(i64 8, ptr %9) #10
  call void @llvm.lifetime.end.p0(i64 4, ptr %8) #10
  %206 = load i32, ptr %4, align 4
  ret i32 %206
}